; Function Attrs: mustprogress nounwind uwtable
define hidden void @_ZN6Assimp3FBX7ElementD2Ev(ptr nocapture noundef nonnull readonly align 8 dereferenceable(40) %this) unnamed_addr #7 align 2 personality ptr @__gxx_personality_v0 {
entry:
  %compound = getelementptr inbounds i8, ptr %this, i64 32
  %0 = load ptr, ptr %compound, align 8
  %tobool.not = icmp eq ptr %0, null
  br i1 %tobool.not, label %if.end, label %if.then

if.then:                                          ; preds = %entry
  %_M_left.i.i = getelementptr inbounds i8, ptr %0, i64 24
  %1 = load ptr, ptr %_M_left.i.i, align 8
  %add.ptr.i.i = getelementptr inbounds i8, ptr %0, i64 8
  %cmp.i.not4 = icmp eq ptr %1, %add.ptr.i.i
  br i1 %cmp.i.not4, label %_ZN6Assimp3FBX5ScopeD2Ev.exit, label %for.body.i

for.body.i:                                       ; preds = %if.then, %for.body.i
  %__begin2.i.sroa.0.05 = phi ptr [ %call.i1, %for.body.i ], [ %1, %if.then ]
  %second.i = getelementptr inbounds i8, ptr %__begin2.i.sroa.0.05, i64 64
  %2 = load ptr, ptr %second.i, align 8
  tail call void @_ZN6Assimp3FBX7ElementD2Ev(ptr noundef nonnull align 8 dereferenceable(40) %2) #21
  %call.i1 = tail call noundef ptr @_ZSt18_Rb_tree_incrementPSt18_Rb_tree_node_base(ptr noundef %__begin2.i.sroa.0.05) #25
  %cmp.i.not = icmp eq ptr %call.i1, %add.ptr.i.i
  br i1 %cmp.i.not, label %_ZN6Assimp3FBX5ScopeD2Ev.exit, label %for.body.i

_ZN6Assimp3FBX5ScopeD2Ev.exit:                    ; preds = %for.body.i, %if.then
  %_M_parent.i.i.i.i = getelementptr inbounds i8, ptr %0, i64 16
  %3 = load ptr, ptr %_M_parent.i.i.i.i, align 8
  invoke void @_ZNSt8_Rb_treeINSt7__cxx1112basic_stringIcSt11char_traitsIcESaIcEEESt4pairIKS5_PN6Assimp3FBX7ElementEESt10_Select1stISC_ESt4lessIS5_ESaISC_EE8_M_eraseEPSt13_Rb_tree_nodeISC_E(ptr noundef nonnull align 8 dereferenceable(48) %0, ptr noundef %3)
          to label %if.end unwind label %terminate.lpad.i.i

terminate.lpad.i.i:                               ; preds = %_ZN6Assimp3FBX5ScopeD2Ev.exit
  %4 = landingpad { ptr, i32 }
          catch ptr null
  %5 = extractvalue { ptr, i32 } %4, 0
  tail call void @__clang_call_terminate(ptr %5) #26
  unreachable

if.end:                                           ; preds = %_ZN6Assimp3FBX5ScopeD2Ev.exit, %entry
  %tokens = getelementptr inbounds i8, ptr %this, i64 8
  %6 = load ptr, ptr %tokens, align 8
  %tobool.not.i.i.i = icmp eq ptr %6, null
  br i1 %tobool.not.i.i.i, label %_ZNSt6vectorIPKN6Assimp3FBX5TokenESaIS4_EED2Ev.exit, label %if.then.i.i.i

if.then.i.i.i:                                    ; preds = %if.end
  tail call void @_ZdlPv(ptr noundef nonnull %6) #24
  br label %_ZNSt6vectorIPKN6Assimp3FBX5TokenESaIS4_EED2Ev.exit

_ZNSt6vectorIPKN6Assimp3FBX5TokenESaIS4_EED2Ev.exit: ; preds = %if.end, %if.then.i.i.i
  ret void
}